target datalayout = "e-m:e-p270:32:32-p271:32:32-p272:64:64-i64:64-i128:128-f80:128-n8:16:32:64-S128"
target triple = "x86_64-pc-linux-gnu"

%struct.Sbd_Par_t_ = type { i32, i32, i32, i32, i32, i32, i32, i32, i32, i32, i32, i32, i32, i32, i32, i32, i32 }
%struct.Gia_Man_t_ = type { ptr, ptr, i32, i32, i32, i32, ptr, ptr, i32, i32, i32, ptr, ptr, %struct.Vec_Int_t_, %struct.Vec_Int_t_, i32, i32, i32, %struct.Vec_Int_t_, ptr, ptr, ptr, i32, i32, i32, i32, ptr, ptr, ptr, ptr, ptr, i32, i32, ptr, i32, ptr, ptr, ptr, ptr, ptr, ptr, ptr, ptr, ptr, ptr, ptr, ptr, ptr, ptr, ptr, ptr, ptr, ptr, %struct.Vec_Int_t_, %struct.Vec_Int_t_, ptr, ptr, ptr, ptr, ptr, ptr, ptr, ptr, ptr, ptr, ptr, ptr, ptr, ptr, ptr, ptr, ptr, ptr, ptr, ptr, ptr, i32, float, float, ptr, ptr, i32, ptr, ptr, ptr, ptr, ptr, ptr, ptr, ptr, ptr, ptr, ptr, ptr, ptr, ptr, ptr, i64, i64, ptr, ptr, i32, i32, i32, i32, i32, i32, i32, i32, i32, i32, i32, i32, ptr, ptr, ptr, ptr, ptr, ptr, ptr, ptr, i32, i32, i32, ptr, i32, i32, ptr, ptr, ptr, ptr, ptr, ptr, i32, i32, ptr, %struct.Vec_Int_t_, %struct.Vec_Int_t_, %struct.Vec_Int_t_, ptr, ptr, ptr, i32, i32, i32, i32, ptr, ptr, ptr, ptr, ptr }
%struct.Vec_Int_t_ = type { i32, i32, ptr }
%struct.Gia_Obj_t_ = type <{ i64, i32 }>
%struct.Sbd_Man_t_ = type { ptr, ptr, ptr, ptr, ptr, ptr, ptr, [4 x ptr], ptr, ptr, ptr, [6 x i32], i32, i32, i64, i64, i64, i64, i64, i64, i64, i64, i64, ptr, ptr, i32, i32, ptr, ptr, ptr, ptr, ptr, ptr, ptr, ptr, [2 x ptr], ptr, ptr }

; Function Attrs: inlinehint nounwind uwtable
define internal ptr @Vec_IntEntryP(ptr noundef %0, i32 noundef %1) #3 {
  %3 = alloca ptr, align 8
  %4 = alloca i32, align 4
  store ptr %0, ptr %3, align 8, !tbaa !52
  store i32 %1, ptr %4, align 4, !tbaa !29
  %5 = load ptr, ptr %3, align 8, !tbaa !52
  %6 = getelementptr inbounds nuw %struct.Vec_Int_t_, ptr %5, i32 0, i32 2
  %7 = load ptr, ptr %6, align 8, !tbaa !70
  %8 = load i32, ptr %4, align 4, !tbaa !29
  %9 = sext i32 %8 to i64
  %10 = getelementptr inbounds i32, ptr %7, i64 %9
  ret ptr %10
}

; Function Attrs: inlinehint nounwind uwtable
define internal ptr @Sbd_ObjCut(ptr noundef %0, i32 noundef %1) #3 {
  %3 = alloca ptr, align 8
  %4 = alloca i32, align 4
  store ptr %0, ptr %3, align 8, !tbaa !73
  store i32 %1, ptr %4, align 4, !tbaa !29
  %5 = load ptr, ptr %3, align 8, !tbaa !73
  %6 = getelementptr inbounds nuw %struct.Sbd_Man_t_, ptr %5, i32 0, i32 4
  %7 = load ptr, ptr %6, align 8, !tbaa !84
  %8 = load ptr, ptr %3, align 8, !tbaa !73
  %9 = getelementptr inbounds nuw %struct.Sbd_Man_t_, ptr %8, i32 0, i32 0
  %10 = load ptr, ptr %9, align 8, !tbaa !80
  %11 = getelementptr inbounds nuw %struct.Sbd_Par_t_, ptr %10, i32 0, i32 0
  %12 = load i32, ptr %11, align 4, !tbaa !8
  %13 = add nsw i32 %12, 1
  %14 = load i32, ptr %4, align 4, !tbaa !29
  %15 = mul nsw i32 %13, %14
  %16 = call ptr @Vec_IntEntryP(ptr noundef %7, i32 noundef %15)
  ret ptr %16
}

; Function Attrs: inlinehint nounwind uwtable
define internal void @Vec_IntWriteEntry(ptr noundef %0, i32 noundef %1, i32 noundef %2) #3 {
  %4 = alloca ptr, align 8
  %5 = alloca i32, align 4
  %6 = alloca i32, align 4
  store ptr %0, ptr %4, align 8, !tbaa !52
  store i32 %1, ptr %5, align 4, !tbaa !29
  store i32 %2, ptr %6, align 4, !tbaa !29
  %7 = load i32, ptr %6, align 4, !tbaa !29
  %8 = load ptr, ptr %4, align 8, !tbaa !52
  %9 = getelementptr inbounds nuw %struct.Vec_Int_t_, ptr %8, i32 0, i32 2
  %10 = load ptr, ptr %9, align 8, !tbaa !70
  %11 = load i32, ptr %5, align 4, !tbaa !29
  %12 = sext i32 %11 to i64
  %13 = getelementptr inbounds i32, ptr %10, i64 %12
  store i32 %7, ptr %13, align 4, !tbaa !29
  ret void
}

; Function Attrs: inlinehint nounwind uwtable
define internal i32 @Abc_MaxInt(i32 noundef %0, i32 noundef %1) #3 {
  %3 = alloca i32, align 4
  %4 = alloca i32, align 4
  store i32 %0, ptr %3, align 4, !tbaa !29
  store i32 %1, ptr %4, align 4, !tbaa !29
  %5 = load i32, ptr %3, align 4, !tbaa !29
  %6 = load i32, ptr %4, align 4, !tbaa !29
  %7 = icmp sgt i32 %5, %6
  br i1 %7, label %8, label %10

8:                                                ; preds = %2
  %9 = load i32, ptr %3, align 4, !tbaa !29
  br label %12

10:                                               ; preds = %2
  %11 = load i32, ptr %4, align 4, !tbaa !29
  br label %12

12:                                               ; preds = %10, %8
  %13 = phi i32 [ %9, %8 ], [ %11, %10 ]
  ret i32 %13
}

; Function Attrs: inlinehint nounwind uwtable
define internal i32 @Gia_ObjId(ptr noundef %0, ptr noundef %1) #3 {
  %3 = alloca ptr, align 8
  %4 = alloca ptr, align 8
  store ptr %0, ptr %3, align 8, !tbaa !27
  store ptr %1, ptr %4, align 8, !tbaa !66
  %5 = load ptr, ptr %4, align 8, !tbaa !66
  %6 = load ptr, ptr %3, align 8, !tbaa !27
  %7 = getelementptr inbounds nuw %struct.Gia_Man_t_, ptr %6, i32 0, i32 6
  %8 = load ptr, ptr %7, align 8, !tbaa !67
  %9 = ptrtoint ptr %5 to i64
  %10 = ptrtoint ptr %8 to i64
  %11 = sub i64 %9, %10
  %12 = sdiv exact i64 %11, 12
  %13 = trunc i64 %12 to i32
  ret i32 %13
}

; Function Attrs: inlinehint nounwind uwtable
define internal i32 @Vec_IntEntry(ptr noundef %0, i32 noundef %1) #3 {
  %3 = alloca ptr, align 8
  %4 = alloca i32, align 4
  store ptr %0, ptr %3, align 8, !tbaa !52
  store i32 %1, ptr %4, align 4, !tbaa !29
  %5 = load ptr, ptr %3, align 8, !tbaa !52
  %6 = getelementptr inbounds nuw %struct.Vec_Int_t_, ptr %5, i32 0, i32 2
  %7 = load ptr, ptr %6, align 8, !tbaa !70
  %8 = load i32, ptr %4, align 4, !tbaa !29
  %9 = sext i32 %8 to i64
  %10 = getelementptr inbounds i32, ptr %7, i64 %9
  %11 = load i32, ptr %10, align 4, !tbaa !29
  ret i32 %11
}

; Function Attrs: inlinehint nounwind uwtable
define internal i32 @Vec_IntSize(ptr noundef %0) #3 {
  %2 = alloca ptr, align 8
  store ptr %0, ptr %2, align 8, !tbaa !52
  %3 = load ptr, ptr %2, align 8, !tbaa !52
  %4 = getelementptr inbounds nuw %struct.Vec_Int_t_, ptr %3, i32 0, i32 1
  %5 = load i32, ptr %4, align 4, !tbaa !65
  ret i32 %5
}

; Function Attrs: inlinehint nounwind uwtable
define internal ptr @Gia_ManObj(ptr noundef %0, i32 noundef %1) #3 {
  %3 = alloca ptr, align 8
  %4 = alloca i32, align 4
  store ptr %0, ptr %3, align 8, !tbaa !27
  store i32 %1, ptr %4, align 4, !tbaa !29
  %5 = load ptr, ptr %3, align 8, !tbaa !27
  %6 = getelementptr inbounds nuw %struct.Gia_Man_t_, ptr %5, i32 0, i32 6
  %7 = load ptr, ptr %6, align 8, !tbaa !67
  %8 = load i32, ptr %4, align 4, !tbaa !29
  %9 = sext i32 %8 to i64
  %10 = getelementptr inbounds %struct.Gia_Obj_t_, ptr %7, i64 %9
  ret ptr %10
}

; Function Attrs: nounwind uwtable
define void @Sbd_ManFindCut(ptr noundef %0, i32 noundef %1, ptr noundef %2) #0 {
  %4 = alloca ptr, align 8
  %5 = alloca i32, align 4
  %6 = alloca ptr, align 8
  %7 = alloca [7 x i32], align 16
  %8 = alloca i32, align 4
  %9 = alloca i32, align 4
  %10 = alloca ptr, align 8
  %11 = alloca ptr, align 8
  store ptr %0, ptr %4, align 8, !tbaa !73
  store i32 %1, ptr %5, align 4, !tbaa !29
  store ptr %2, ptr %6, align 8, !tbaa !52
  call void @llvm.lifetime.start.p0(i64 28, ptr %7) #13
  call void @llvm.lifetime.start.p0(i64 4, ptr %8) #13
  call void @llvm.lifetime.start.p0(i64 4, ptr %9) #13
  store i32 0, ptr %9, align 4, !tbaa !29
  call void @llvm.lifetime.start.p0(i64 8, ptr %10) #13
  call void @llvm.lifetime.start.p0(i64 8, ptr %11) #13
  %12 = load ptr, ptr %4, align 8, !tbaa !73
  %13 = getelementptr inbounds nuw %struct.Sbd_Man_t_, ptr %12, i32 0, i32 1
  %14 = load ptr, ptr %13, align 8, !tbaa !81
  %15 = load i32, ptr %5, align 4, !tbaa !29
  %16 = call ptr @Gia_ManObj(ptr noundef %14, i32 noundef %15)
  store ptr %16, ptr %11, align 8, !tbaa !66
  %17 = load ptr, ptr %4, align 8, !tbaa !73
  %18 = getelementptr inbounds nuw %struct.Sbd_Man_t_, ptr %17, i32 0, i32 1
  %19 = load ptr, ptr %18, align 8, !tbaa !81
  %20 = load ptr, ptr %11, align 8, !tbaa !66
  call void @Sbd_ManFindCut_rec(ptr noundef %19, ptr noundef %20)
  %21 = getelementptr inbounds [7 x i32], ptr %7, i64 0, i64 0
  store i32 0, ptr %21, align 16, !tbaa !29
  store i32 0, ptr %8, align 4, !tbaa !29
  br label %22

22:                                               ; preds = %69, %3
  %23 = load i32, ptr %8, align 4, !tbaa !29
  %24 = load ptr, ptr %6, align 8, !tbaa !52
  %25 = call i32 @Vec_IntSize(ptr noundef %24)
  %26 = icmp slt i32 %23, %25
  br i1 %26, label %27, label %36

27:                                               ; preds = %22
  %28 = load ptr, ptr %4, align 8, !tbaa !73
  %29 = getelementptr inbounds nuw %struct.Sbd_Man_t_, ptr %28, i32 0, i32 1
  %30 = load ptr, ptr %29, align 8, !tbaa !81
  %31 = load ptr, ptr %6, align 8, !tbaa !52
  %32 = load i32, ptr %8, align 4, !tbaa !29
  %33 = call i32 @Vec_IntEntry(ptr noundef %31, i32 noundef %32)
  %34 = call ptr @Gia_ManObj(ptr noundef %30, i32 noundef %33)
  store ptr %34, ptr %10, align 8, !tbaa !66
  %35 = icmp ne ptr %34, null
  br label %36

36:                                               ; preds = %27, %22
  %37 = phi i1 [ false, %22 ], [ %35, %27 ]
  br i1 %37, label %38, label %72

38:                                               ; preds = %36
  %39 = load ptr, ptr %10, align 8, !tbaa !66
  %40 = load i64, ptr %39, align 4
  %41 = lshr i64 %40, 62
  %42 = and i64 %41, 1
  %43 = trunc i64 %42 to i32
  %44 = icmp ne i32 %43, 0
  br i1 %44, label %45, label %68

45:                                               ; preds = %38
  %46 = load i32, ptr %9, align 4, !tbaa !29
  %47 = load ptr, ptr %4, align 8, !tbaa !73
  %48 = getelementptr inbounds nuw %struct.Sbd_Man_t_, ptr %47, i32 0, i32 3
  %49 = load ptr, ptr %48, align 8, !tbaa !83
  %50 = load ptr, ptr %4, align 8, !tbaa !73
  %51 = getelementptr inbounds nuw %struct.Sbd_Man_t_, ptr %50, i32 0, i32 1
  %52 = load ptr, ptr %51, align 8, !tbaa !81
  %53 = load ptr, ptr %10, align 8, !tbaa !66
  %54 = call i32 @Gia_ObjId(ptr noundef %52, ptr noundef %53)
  %55 = call i32 @Vec_IntEntry(ptr noundef %49, i32 noundef %54)
  %56 = call i32 @Abc_MaxInt(i32 noundef %46, i32 noundef %55)
  store i32 %56, ptr %9, align 4, !tbaa !29
  %57 = load ptr, ptr %4, align 8, !tbaa !73
  %58 = getelementptr inbounds nuw %struct.Sbd_Man_t_, ptr %57, i32 0, i32 1
  %59 = load ptr, ptr %58, align 8, !tbaa !81
  %60 = load ptr, ptr %10, align 8, !tbaa !66
  %61 = call i32 @Gia_ObjId(ptr noundef %59, ptr noundef %60)
  %62 = getelementptr inbounds [7 x i32], ptr %7, i64 0, i64 0
  %63 = load i32, ptr %62, align 16, !tbaa !29
  %64 = add nsw i32 %63, 1
  store i32 %64, ptr %62, align 16, !tbaa !29
  %65 = add nsw i32 1, %63
  %66 = sext i32 %65 to i64
  %67 = getelementptr inbounds [7 x i32], ptr %7, i64 0, i64 %66
  store i32 %61, ptr %67, align 4, !tbaa !29
  br label %68

68:                                               ; preds = %45, %38
  br label %69

69:                                               ; preds = %68
  %70 = load i32, ptr %8, align 4, !tbaa !29
  %71 = add nsw i32 %70, 1
  store i32 %71, ptr %8, align 4, !tbaa !29
  br label %22, !llvm.loop !269

72:                                               ; preds = %36
  %73 = load ptr, ptr %4, align 8, !tbaa !73
  %74 = getelementptr inbounds nuw %struct.Sbd_Man_t_, ptr %73, i32 0, i32 1
  %75 = load ptr, ptr %74, align 8, !tbaa !81
  %76 = load ptr, ptr %11, align 8, !tbaa !66
  call void @Sbd_ManFindCutUnmark_rec(ptr noundef %75, ptr noundef %76)
  %77 = load ptr, ptr %4, align 8, !tbaa !73
  %78 = getelementptr inbounds nuw %struct.Sbd_Man_t_, ptr %77, i32 0, i32 3
  %79 = load ptr, ptr %78, align 8, !tbaa !83
  %80 = load i32, ptr %5, align 4, !tbaa !29
  %81 = load i32, ptr %9, align 4, !tbaa !29
  %82 = add nsw i32 %81, 1
  call void @Vec_IntWriteEntry(ptr noundef %79, i32 noundef %80, i32 noundef %82)
  %83 = load ptr, ptr %4, align 8, !tbaa !73
  %84 = load i32, ptr %5, align 4, !tbaa !29
  %85 = call ptr @Sbd_ObjCut(ptr noundef %83, i32 noundef %84)
  %86 = getelementptr inbounds [7 x i32], ptr %7, i64 0, i64 0
  %87 = getelementptr inbounds [7 x i32], ptr %7, i64 0, i64 0
  %88 = load i32, ptr %87, align 16, !tbaa !29
  %89 = add nsw i32 %88, 1
  %90 = sext i32 %89 to i64
  %91 = mul i64 4, %90
  call void @llvm.memcpy.p0.p0.i64(ptr align 4 %85, ptr align 16 %86, i64 %91, i1 false)
  call void @llvm.lifetime.end.p0(i64 8, ptr %11) #13
  call void @llvm.lifetime.end.p0(i64 8, ptr %10) #13
  call void @llvm.lifetime.end.p0(i64 4, ptr %9) #13
  call void @llvm.lifetime.end.p0(i64 4, ptr %8) #13
  call void @llvm.lifetime.end.p0(i64 28, ptr %7) #13
  ret void
}