; Function Attrs: nofree nosync nounwind memory(readwrite, inaccessiblemem: none) uwtable
define void @Sbd_ManFindCut(ptr noundef readonly captures(none) %0, i32 noundef %1, ptr noundef readonly captures(none) %2) local_unnamed_addr #16 {
  %4 = alloca [7 x i32], align 16
  call void @llvm.lifetime.start.p0(i64 28, ptr nonnull %4) #32
  %5 = getelementptr inbounds nuw i8, ptr %0, i64 8
  %6 = load ptr, ptr %5, align 8, !tbaa !75
  %7 = getelementptr i8, ptr %6, i64 32
  %.val29 = load ptr, ptr %7, align 8, !tbaa !55
  %8 = sext i32 %1 to i64
  %9 = getelementptr inbounds %struct.Gia_Obj_t_, ptr %.val29, i64 %8
  tail call void @Sbd_ManFindCut_rec(ptr noundef %6, ptr noundef %9)
  store i32 0, ptr %4, align 16, !tbaa !50
  %10 = getelementptr i8, ptr %2, i64 4
  %.val = load i32, ptr %10, align 4, !tbaa !48
  %11 = icmp sgt i32 %.val, 0
  %.pre = load ptr, ptr %5, align 8, !tbaa !75
  br i1 %11, label %.lr.ph, label %.critedge

.lr.ph:                                           ; preds = %3
  %12 = getelementptr i8, ptr %2, i64 8
  %.val27 = load ptr, ptr %12, align 8, !tbaa !49
  %13 = getelementptr i8, ptr %.pre, i64 32
  %.val28 = load ptr, ptr %13, align 8, !tbaa !55
  %.not = icmp eq ptr %.val28, null
  %14 = getelementptr inbounds nuw i8, ptr %0, i64 24
  br i1 %.not, label %.critedge, label %.lr.ph.split.preheader

.lr.ph.split.preheader:                           ; preds = %.lr.ph
  %wide.trip.count = zext nneg i32 %.val to i64
  br label %.lr.ph.split

.lr.ph.split:                                     ; preds = %.lr.ph.split.preheader, %31
  %indvars.iv = phi i64 [ 0, %.lr.ph.split.preheader ], [ %indvars.iv.next, %31 ]
  %.02335 = phi i32 [ 0, %.lr.ph.split.preheader ], [ %.1, %31 ]
  %15 = getelementptr inbounds nuw i32, ptr %.val27, i64 %indvars.iv
  %16 = load i32, ptr %15, align 4, !tbaa !50
  %17 = sext i32 %16 to i64
  %18 = getelementptr inbounds %struct.Gia_Obj_t_, ptr %.val28, i64 %17
  %19 = load i64, ptr %18, align 4
  %20 = and i64 %19, 4611686018427387904
  %.not25 = icmp eq i64 %20, 0
  br i1 %.not25, label %31, label %21

21:                                               ; preds = %.lr.ph.split
  %22 = load ptr, ptr %14, align 8, !tbaa !77
  %23 = getelementptr i8, ptr %22, i64 8
  %.val26 = load ptr, ptr %23, align 8, !tbaa !49
  %24 = getelementptr inbounds i32, ptr %.val26, i64 %17
  %25 = load i32, ptr %24, align 4, !tbaa !50
  %26 = tail call noundef i32 @llvm.smax.i32(i32 %.02335, i32 %25)
  %27 = load i32, ptr %4, align 16, !tbaa !50
  %28 = add nsw i32 %27, 1
  store i32 %28, ptr %4, align 16, !tbaa !50
  %29 = sext i32 %28 to i64
  %30 = getelementptr inbounds [7 x i32], ptr %4, i64 0, i64 %29
  store i32 %16, ptr %30, align 4, !tbaa !50
  br label %31

31:                                               ; preds = %.lr.ph.split, %21
  %.1 = phi i32 [ %26, %21 ], [ %.02335, %.lr.ph.split ]
  %indvars.iv.next = add nuw nsw i64 %indvars.iv, 1
  %exitcond.not = icmp eq i64 %indvars.iv.next, %wide.trip.count
  br i1 %exitcond.not, label %.critedge.loopexit, label %.lr.ph.split, !llvm.loop !255

.critedge.loopexit:                               ; preds = %31
  %.pre40 = load i32, ptr %4, align 16, !tbaa !50
  %32 = add nuw nsw i32 %.1, 1
  %33 = add nsw i32 %.pre40, 1
  %34 = sext i32 %33 to i64
  %35 = shl nsw i64 %34, 2
  br label %.critedge

.critedge:                                        ; preds = %.lr.ph, %.critedge.loopexit, %3
  %36 = phi i64 [ 4, %3 ], [ %35, %.critedge.loopexit ], [ 4, %.lr.ph ]
  %.023.lcssa = phi i32 [ 1, %3 ], [ %32, %.critedge.loopexit ], [ 1, %.lr.ph ]
  tail call void @Sbd_ManFindCutUnmark_rec(ptr noundef %.pre, ptr noundef %9)
  %37 = getelementptr inbounds nuw i8, ptr %0, i64 24
  %38 = load ptr, ptr %37, align 8, !tbaa !77
  %39 = getelementptr i8, ptr %38, i64 8
  %.val32 = load ptr, ptr %39, align 8, !tbaa !49
  %40 = getelementptr inbounds i32, ptr %.val32, i64 %8
  store i32 %.023.lcssa, ptr %40, align 4, !tbaa !50
  %.val33 = load ptr, ptr %0, align 8, !tbaa !74
  %41 = getelementptr i8, ptr %0, i64 32
  %.val34 = load ptr, ptr %41, align 8, !tbaa !78
  %.val33.val = load i32, ptr %.val33, align 4, !tbaa !3
  %42 = getelementptr i8, ptr %.val34, i64 8
  %.val34.val = load ptr, ptr %42, align 8, !tbaa !49
  %43 = add nsw i32 %.val33.val, 1
  %44 = mul nsw i32 %43, %1
  %45 = sext i32 %44 to i64
  %46 = getelementptr inbounds i32, ptr %.val34.val, i64 %45
  call void @llvm.memcpy.p0.p0.i64(ptr align 4 %46, ptr nonnull align 16 %4, i64 %36, i1 false)
  call void @llvm.lifetime.end.p0(i64 28, ptr nonnull %4) #32
  ret void
}